target datalayout = "e-m:e-p270:32:32-p271:32:32-p272:64:64-i64:64-i128:128-f80:128-n8:16:32:64-S128"
target triple = "x86_64-unknown-linux-gnu"

%"class.std::__cxx11::basic_string" = type { %"struct.std::__cxx11::basic_string<char>::_Alloc_hider", i64, %union.anon }
%"struct.std::__cxx11::basic_string<char>::_Alloc_hider" = type { ptr }
%union.anon = type { i64, [8 x i8] }
%"class.SampleICC::IccParametricCurveTypeReader" = type { %"class.SampleICC::IccTypeReader", i16, i16, ptr }
%"class.SampleICC::IccTypeReader" = type { ptr }
%"class.SampleICC::IccCurveTypeReader" = type { %"class.SampleICC::IccTypeReader", %"class.std::vector" }
%"class.std::vector" = type { %"struct.std::_Vector_base" }
%"struct.std::_Vector_base" = type { %"struct.std::_Vector_base<float, std::allocator<float>>::_Vector_impl" }
%"struct.std::_Vector_base<float, std::allocator<float>>::_Vector_impl" = type { %"struct.std::_Vector_base<float, std::allocator<float>>::_Vector_impl_data" }
%"struct.std::_Vector_base<float, std::allocator<float>>::_Vector_impl_data" = type { ptr, ptr, ptr }
%"class.SampleICC::IccTextDescriptionTypeReader" = type { %"class.SampleICC::IccTypeReader", %"class.std::__cxx11::basic_string" }
%"class.SampleICC::IccMultiLocalizedUnicodeTypeReader" = type { %"class.SampleICC::IccTypeReader", %"class.std::__cxx11::basic_string" }

; Function Attrs: mustprogress nounwind uwtable
define linkonce_odr hidden void @_ZNSt15__new_allocatorIfEC2Ev(ptr noundef nonnull align 1 dereferenceable(1) %this) unnamed_addr #4 comdat align 2 {
entry:
  %this.addr = alloca ptr, align 8
  store ptr %this, ptr %this.addr, align 8
  ret void
}

; Function Attrs: mustprogress nounwind uwtable
define linkonce_odr hidden void @_ZNSt12_Vector_baseIfSaIfEE17_Vector_impl_dataC2Ev(ptr noundef nonnull align 8 dereferenceable(24) %this) unnamed_addr #4 comdat align 2 {
entry:
  %this.addr = alloca ptr, align 8
  store ptr %this, ptr %this.addr, align 8
  %this1 = load ptr, ptr %this.addr, align 8
  %_M_start = getelementptr inbounds %"struct.std::_Vector_base<float, std::allocator<float>>::_Vector_impl_data", ptr %this1, i32 0, i32 0
  store ptr null, ptr %_M_start, align 8
  %_M_finish = getelementptr inbounds %"struct.std::_Vector_base<float, std::allocator<float>>::_Vector_impl_data", ptr %this1, i32 0, i32 1
  store ptr null, ptr %_M_finish, align 8
  %_M_end_of_storage = getelementptr inbounds %"struct.std::_Vector_base<float, std::allocator<float>>::_Vector_impl_data", ptr %this1, i32 0, i32 2
  store ptr null, ptr %_M_end_of_storage, align 8
  ret void
}

; Function Attrs: mustprogress nounwind uwtable
define linkonce_odr hidden void @_ZNSaIfEC2Ev(ptr noundef nonnull align 1 dereferenceable(1) %this) unnamed_addr #4 comdat align 2 {
entry:
  %this.addr = alloca ptr, align 8
  store ptr %this, ptr %this.addr, align 8
  %this1 = load ptr, ptr %this.addr, align 8
  call void @_ZNSt15__new_allocatorIfEC2Ev(ptr noundef nonnull align 1 dereferenceable(1) %this1) #3
  ret void
}

; Function Attrs: mustprogress nounwind uwtable
define linkonce_odr hidden void @_ZNSt12_Vector_baseIfSaIfEE12_Vector_implC2Ev(ptr noundef nonnull align 8 dereferenceable(24) %this) unnamed_addr #4 comdat align 2 {
entry:
  %this.addr = alloca ptr, align 8
  store ptr %this, ptr %this.addr, align 8
  %this1 = load ptr, ptr %this.addr, align 8
  call void @_ZNSaIfEC2Ev(ptr noundef nonnull align 1 dereferenceable(1) %this1) #3
  call void @_ZNSt12_Vector_baseIfSaIfEE17_Vector_impl_dataC2Ev(ptr noundef nonnull align 8 dereferenceable(24) %this1) #3
  ret void
}

; Function Attrs: mustprogress nounwind uwtable
define linkonce_odr hidden void @_ZNSt12_Vector_baseIfSaIfEEC2Ev(ptr noundef nonnull align 8 dereferenceable(24) %this) unnamed_addr #4 comdat align 2 {
entry:
  %this.addr = alloca ptr, align 8
  store ptr %this, ptr %this.addr, align 8
  %this1 = load ptr, ptr %this.addr, align 8
  %_M_impl = getelementptr inbounds %"struct.std::_Vector_base", ptr %this1, i32 0, i32 0
  call void @_ZNSt12_Vector_baseIfSaIfEE12_Vector_implC2Ev(ptr noundef nonnull align 8 dereferenceable(24) %_M_impl) #3
  ret void
}

; Function Attrs: mustprogress nounwind uwtable
define linkonce_odr hidden void @_ZNSt6vectorIfSaIfEEC2Ev(ptr noundef nonnull align 8 dereferenceable(24) %this) unnamed_addr #4 comdat align 2 {
entry:
  %this.addr = alloca ptr, align 8
  store ptr %this, ptr %this.addr, align 8
  %this1 = load ptr, ptr %this.addr, align 8
  call void @_ZNSt12_Vector_baseIfSaIfEEC2Ev(ptr noundef nonnull align 8 dereferenceable(24) %this1) #3
  ret void
}

; Function Attrs: mustprogress nounwind uwtable
define linkonce_odr hidden void @_ZN9SampleICC13IccTypeReaderC2Ev(ptr noundef nonnull align 8 dereferenceable(8) %this) unnamed_addr #4 comdat align 2 {
entry:
  %this.addr = alloca ptr, align 8
  store ptr %this, ptr %this.addr, align 8
  %this1 = load ptr, ptr %this.addr, align 8
  store ptr getelementptr inbounds ({ [6 x ptr] }, ptr @_ZTVN9SampleICC13IccTypeReaderE, i32 0, i32 0, i32 2), ptr %this1, align 8
  ret void
}

; Function Attrs: mustprogress nounwind uwtable
define linkonce_odr hidden void @_ZN9SampleICC34IccMultiLocalizedUnicodeTypeReaderC2Ev(ptr noundef nonnull align 8 dereferenceable(40) %this) unnamed_addr #4 comdat align 2 {
entry:
  %this.addr = alloca ptr, align 8
  store ptr %this, ptr %this.addr, align 8
  %this1 = load ptr, ptr %this.addr, align 8
  call void @_ZN9SampleICC13IccTypeReaderC2Ev(ptr noundef nonnull align 8 dereferenceable(8) %this1)
  store ptr getelementptr inbounds ({ [6 x ptr] }, ptr @_ZTVN9SampleICC34IccMultiLocalizedUnicodeTypeReaderE, i32 0, i32 0, i32 2), ptr %this1, align 8
  %mText = getelementptr inbounds %"class.SampleICC::IccMultiLocalizedUnicodeTypeReader", ptr %this1, i32 0, i32 1
  call void @_ZNSt7__cxx1112basic_stringIcSt11char_traitsIcESaIcEEC1Ev(ptr noundef nonnull align 8 dereferenceable(32) %mText) #3
  ret void
}

; Function Attrs: mustprogress nounwind uwtable
define linkonce_odr hidden void @_ZN9SampleICC28IccTextDescriptionTypeReaderC2Ev(ptr noundef nonnull align 8 dereferenceable(40) %this) unnamed_addr #4 comdat align 2 {
entry:
  %this.addr = alloca ptr, align 8
  store ptr %this, ptr %this.addr, align 8
  %this1 = load ptr, ptr %this.addr, align 8
  call void @_ZN9SampleICC13IccTypeReaderC2Ev(ptr noundef nonnull align 8 dereferenceable(8) %this1)
  store ptr getelementptr inbounds ({ [6 x ptr] }, ptr @_ZTVN9SampleICC28IccTextDescriptionTypeReaderE, i32 0, i32 0, i32 2), ptr %this1, align 8
  %mText = getelementptr inbounds %"class.SampleICC::IccTextDescriptionTypeReader", ptr %this1, i32 0, i32 1
  call void @_ZNSt7__cxx1112basic_stringIcSt11char_traitsIcESaIcEEC1Ev(ptr noundef nonnull align 8 dereferenceable(32) %mText) #3
  ret void
}

; Function Attrs: mustprogress nounwind uwtable
define linkonce_odr hidden void @_ZN9SampleICC18IccCurveTypeReaderC2Ev(ptr noundef nonnull align 8 dereferenceable(32) %this) unnamed_addr #4 comdat align 2 {
entry:
  %this.addr = alloca ptr, align 8
  store ptr %this, ptr %this.addr, align 8
  %this1 = load ptr, ptr %this.addr, align 8
  call void @_ZN9SampleICC13IccTypeReaderC2Ev(ptr noundef nonnull align 8 dereferenceable(8) %this1)
  store ptr getelementptr inbounds ({ [6 x ptr] }, ptr @_ZTVN9SampleICC18IccCurveTypeReaderE, i32 0, i32 0, i32 2), ptr %this1, align 8
  %mCurve = getelementptr inbounds %"class.SampleICC::IccCurveTypeReader", ptr %this1, i32 0, i32 1
  call void @_ZNSt6vectorIfSaIfEEC2Ev(ptr noundef nonnull align 8 dereferenceable(24) %mCurve) #3
  ret void
}

; Function Attrs: mustprogress nounwind uwtable
define linkonce_odr hidden void @_ZN9SampleICC28IccParametricCurveTypeReaderC2Ev(ptr noundef nonnull align 8 dereferenceable(24) %this) unnamed_addr #4 comdat align 2 {
entry:
  %this.addr = alloca ptr, align 8
  store ptr %this, ptr %this.addr, align 8
  %this1 = load ptr, ptr %this.addr, align 8
  call void @_ZN9SampleICC13IccTypeReaderC2Ev(ptr noundef nonnull align 8 dereferenceable(8) %this1)
  store ptr getelementptr inbounds ({ [6 x ptr] }, ptr @_ZTVN9SampleICC28IccParametricCurveTypeReaderE, i32 0, i32 0, i32 2), ptr %this1, align 8
  %mFunctionType = getelementptr inbounds %"class.SampleICC::IccParametricCurveTypeReader", ptr %this1, i32 0, i32 1
  store i16 0, ptr %mFunctionType, align 8
  %mnNumParam = getelementptr inbounds %"class.SampleICC::IccParametricCurveTypeReader", ptr %this1, i32 0, i32 2
  store i16 0, ptr %mnNumParam, align 2
  %mParam = getelementptr inbounds %"class.SampleICC::IccParametricCurveTypeReader", ptr %this1, i32 0, i32 3
  store ptr null, ptr %mParam, align 8
  ret void
}

; Function Attrs: mustprogress uwtable
define linkonce_odr hidden void @_ZN9SampleICC21IccXYZArrayTypeReaderC2Ev(ptr noundef nonnull align 8 dereferenceable(20) %this) unnamed_addr #5 comdat align 2 {
entry:
  %this.addr = alloca ptr, align 8
  store ptr %this, ptr %this.addr, align 8
  %this1 = load ptr, ptr %this.addr, align 8
  call void @_ZN9SampleICC13IccTypeReaderC2Ev(ptr noundef nonnull align 8 dereferenceable(8) %this1)
  store ptr getelementptr inbounds ({ [6 x ptr] }, ptr @_ZTVN9SampleICC21IccXYZArrayTypeReaderE, i32 0, i32 0, i32 2), ptr %this1, align 8
  ret void
}

; Function Attrs: mustprogress uwtable
define hidden noundef ptr @_ZN9SampleICC13IccTypeReader6CreateE18icTagTypeSignature(i32 noundef %sigType) #5 align 2 personality ptr @__gxx_personality_v0 {
entry:
  %retval = alloca ptr, align 8
  %sigType.addr = alloca i32, align 4
  %exn.slot = alloca ptr, align 8
  %ehselector.slot = alloca i32, align 4
  store i32 %sigType, ptr %sigType.addr, align 4
  %0 = load i32, ptr %sigType.addr, align 4
  %cmp = icmp eq i32 1482250784, %0
  br i1 %cmp, label %if.then, label %if.else

if.then:                                          ; preds = %entry
  %call = call noalias noundef nonnull ptr @_Znwm(i64 noundef 24) #16
  invoke void @_ZN9SampleICC21IccXYZArrayTypeReaderC2Ev(ptr noundef nonnull align 8 dereferenceable(20) %call)
          to label %invoke.cont unwind label %lpad

invoke.cont:                                      ; preds = %if.then
  store ptr %call, ptr %retval, align 8
  br label %return

lpad:                                             ; preds = %if.then
  %1 = landingpad { ptr, i32 }
          cleanup
  %2 = extractvalue { ptr, i32 } %1, 0
  store ptr %2, ptr %exn.slot, align 8
  %3 = extractvalue { ptr, i32 } %1, 1
  store i32 %3, ptr %ehselector.slot, align 4
  call void @_ZdlPv(ptr noundef %call) #17
  br label %eh.resume

if.else:                                          ; preds = %entry
  %4 = load i32, ptr %sigType.addr, align 4
  %cmp1 = icmp eq i32 1885434465, %4
  br i1 %cmp1, label %if.then2, label %if.else6

if.then2:                                         ; preds = %if.else
  %call3 = call noalias noundef nonnull ptr @_Znwm(i64 noundef 24) #16
  invoke void @_ZN9SampleICC28IccParametricCurveTypeReaderC2Ev(ptr noundef nonnull align 8 dereferenceable(24) %call3)
          to label %invoke.cont5 unwind label %lpad4

invoke.cont5:                                     ; preds = %if.then2
  store ptr %call3, ptr %retval, align 8
  br label %return

lpad4:                                            ; preds = %if.then2
  %5 = landingpad { ptr, i32 }
          cleanup
  %6 = extractvalue { ptr, i32 } %5, 0
  store ptr %6, ptr %exn.slot, align 8
  %7 = extractvalue { ptr, i32 } %5, 1
  store i32 %7, ptr %ehselector.slot, align 4
  call void @_ZdlPv(ptr noundef %call3) #17
  br label %eh.resume

if.else6:                                         ; preds = %if.else
  %8 = load i32, ptr %sigType.addr, align 4
  %cmp7 = icmp eq i32 1668641398, %8
  br i1 %cmp7, label %if.then8, label %if.else12

if.then8:                                         ; preds = %if.else6
  %call9 = call noalias noundef nonnull ptr @_Znwm(i64 noundef 32) #16
  invoke void @_ZN9SampleICC18IccCurveTypeReaderC2Ev(ptr noundef nonnull align 8 dereferenceable(32) %call9)
          to label %invoke.cont11 unwind label %lpad10

invoke.cont11:                                    ; preds = %if.then8
  store ptr %call9, ptr %retval, align 8
  br label %return

lpad10:                                           ; preds = %if.then8
  %9 = landingpad { ptr, i32 }
          cleanup
  %10 = extractvalue { ptr, i32 } %9, 0
  store ptr %10, ptr %exn.slot, align 8
  %11 = extractvalue { ptr, i32 } %9, 1
  store i32 %11, ptr %ehselector.slot, align 4
  call void @_ZdlPv(ptr noundef %call9) #17
  br label %eh.resume

if.else12:                                        ; preds = %if.else6
  %12 = load i32, ptr %sigType.addr, align 4
  %cmp13 = icmp eq i32 1684370275, %12
  br i1 %cmp13, label %if.then14, label %if.else18

if.then14:                                        ; preds = %if.else12
  %call15 = call noalias noundef nonnull ptr @_Znwm(i64 noundef 40) #16
  call void @llvm.memset.p0.i64(ptr align 16 %call15, i8 0, i64 40, i1 false)
  invoke void @_ZN9SampleICC28IccTextDescriptionTypeReaderC2Ev(ptr noundef nonnull align 8 dereferenceable(40) %call15)
          to label %invoke.cont17 unwind label %lpad16

invoke.cont17:                                    ; preds = %if.then14
  store ptr %call15, ptr %retval, align 8
  br label %return

lpad16:                                           ; preds = %if.then14
  %13 = landingpad { ptr, i32 }
          cleanup
  %14 = extractvalue { ptr, i32 } %13, 0
  store ptr %14, ptr %exn.slot, align 8
  %15 = extractvalue { ptr, i32 } %13, 1
  store i32 %15, ptr %ehselector.slot, align 4
  call void @_ZdlPv(ptr noundef %call15) #17
  br label %eh.resume

if.else18:                                        ; preds = %if.else12
  %16 = load i32, ptr %sigType.addr, align 4
  %cmp19 = icmp eq i32 1835824483, %16
  br i1 %cmp19, label %if.then20, label %if.end

if.then20:                                        ; preds = %if.else18
  %call21 = call noalias noundef nonnull ptr @_Znwm(i64 noundef 40) #16
  call void @llvm.memset.p0.i64(ptr align 16 %call21, i8 0, i64 40, i1 false)
  invoke void @_ZN9SampleICC34IccMultiLocalizedUnicodeTypeReaderC2Ev(ptr noundef nonnull align 8 dereferenceable(40) %call21)
          to label %invoke.cont23 unwind label %lpad22

invoke.cont23:                                    ; preds = %if.then20
  store ptr %call21, ptr %retval, align 8
  br label %return

lpad22:                                           ; preds = %if.then20
  %17 = landingpad { ptr, i32 }
          cleanup
  %18 = extractvalue { ptr, i32 } %17, 0
  store ptr %18, ptr %exn.slot, align 8
  %19 = extractvalue { ptr, i32 } %17, 1
  store i32 %19, ptr %ehselector.slot, align 4
  call void @_ZdlPv(ptr noundef %call21) #17
  br label %eh.resume

if.end:                                           ; preds = %if.else18
  br label %if.end24

if.end24:                                         ; preds = %if.end
  br label %if.end25

if.end25:                                         ; preds = %if.end24
  br label %if.end26

if.end26:                                         ; preds = %if.end25
  br label %if.end27

if.end27:                                         ; preds = %if.end26
  store ptr null, ptr %retval, align 8
  br label %return

return:                                           ; preds = %if.end27, %invoke.cont23, %invoke.cont17, %invoke.cont11, %invoke.cont5, %invoke.cont
  %20 = load ptr, ptr %retval, align 8
  ret ptr %20

eh.resume:                                        ; preds = %lpad22, %lpad16, %lpad10, %lpad4, %lpad
  %exn = load ptr, ptr %exn.slot, align 8
  %sel = load i32, ptr %ehselector.slot, align 4
  %lpad.val = insertvalue { ptr, i32 } poison, ptr %exn, 0
  %lpad.val28 = insertvalue { ptr, i32 } %lpad.val, i32 %sel, 1
  resume { ptr, i32 } %lpad.val28
}