; Function Attrs: mustprogress uwtable
define hidden noundef ptr @_ZN9SampleICC13IccTypeReader6CreateE18icTagTypeSignature(i32 noundef %sigType) local_unnamed_addr #6 align 2 personality ptr @__gxx_personality_v0 {
entry:
  switch i32 %sigType, label %return [
    i32 1482250784, label %if.then
    i32 1885434465, label %if.then2
    i32 1668641398, label %if.then8
    i32 1684370275, label %if.then14
    i32 1835824483, label %if.then20
  ]

if.then:                                          ; preds = %entry
  %call = tail call noalias noundef nonnull dereferenceable(24) ptr @_Znwm(i64 noundef 24) #27
  store ptr getelementptr inbounds ({ [6 x ptr] }, ptr @_ZTVN9SampleICC21IccXYZArrayTypeReaderE, i64 0, i32 0, i64 2), ptr %call, align 8
  br label %return

if.then2:                                         ; preds = %entry
  %call3 = tail call noalias noundef nonnull dereferenceable(24) ptr @_Znwm(i64 noundef 24) #27
  store ptr getelementptr inbounds ({ [6 x ptr] }, ptr @_ZTVN9SampleICC28IccParametricCurveTypeReaderE, i64 0, i32 0, i64 2), ptr %call3, align 8
  %mFunctionType.i = getelementptr inbounds i8, ptr %call3, i64 8
  store i16 0, ptr %mFunctionType.i, align 8
  %mnNumParam.i = getelementptr inbounds i8, ptr %call3, i64 10
  store i16 0, ptr %mnNumParam.i, align 2
  %mParam.i = getelementptr inbounds i8, ptr %call3, i64 16
  store ptr null, ptr %mParam.i, align 8
  br label %return

if.then8:                                         ; preds = %entry
  %call9 = tail call noalias noundef nonnull dereferenceable(32) ptr @_Znwm(i64 noundef 32) #27
  store ptr getelementptr inbounds ({ [6 x ptr] }, ptr @_ZTVN9SampleICC18IccCurveTypeReaderE, i64 0, i32 0, i64 2), ptr %call9, align 8
  %mCurve.i = getelementptr inbounds i8, ptr %call9, i64 8
  tail call void @llvm.memset.p0.i64(ptr noundef nonnull align 8 dereferenceable(24) %mCurve.i, i8 0, i64 24, i1 false)
  br label %return

if.then14:                                        ; preds = %entry
  %call15 = tail call noalias noundef nonnull dereferenceable(40) ptr @_Znwm(i64 noundef 40) #27
  tail call void @llvm.memset.p0.i64(ptr noundef nonnull align 16 dereferenceable(40) %call15, i8 0, i64 40, i1 false)
  store ptr getelementptr inbounds ({ [6 x ptr] }, ptr @_ZTVN9SampleICC28IccTextDescriptionTypeReaderE, i64 0, i32 0, i64 2), ptr %call15, align 8
  %mText.i = getelementptr inbounds i8, ptr %call15, i64 8
  tail call void @_ZNSt7__cxx1112basic_stringIcSt11char_traitsIcESaIcEEC1Ev(ptr noundef nonnull align 8 dereferenceable(32) %mText.i) #28
  br label %return

if.then20:                                        ; preds = %entry
  %call21 = tail call noalias noundef nonnull dereferenceable(40) ptr @_Znwm(i64 noundef 40) #27
  tail call void @llvm.memset.p0.i64(ptr noundef nonnull align 16 dereferenceable(40) %call21, i8 0, i64 40, i1 false)
  store ptr getelementptr inbounds ({ [6 x ptr] }, ptr @_ZTVN9SampleICC34IccMultiLocalizedUnicodeTypeReaderE, i64 0, i32 0, i64 2), ptr %call21, align 8
  %mText.i5 = getelementptr inbounds i8, ptr %call21, i64 8
  tail call void @_ZNSt7__cxx1112basic_stringIcSt11char_traitsIcESaIcEEC1Ev(ptr noundef nonnull align 8 dereferenceable(32) %mText.i5) #28
  br label %return

return:                                           ; preds = %if.then, %entry, %if.then20, %if.then14, %if.then8, %if.then2
  %retval.0 = phi ptr [ %call3, %if.then2 ], [ %call9, %if.then8 ], [ %call15, %if.then14 ], [ %call21, %if.then20 ], [ %call, %if.then ], [ null, %entry ]
  ret ptr %retval.0
}